target datalayout = "e-m:e-p270:32:32-p271:32:32-p272:64:64-i64:64-i128:128-f80:128-n8:16:32:64-S128"
target triple = "x86_64-pc-linux-gnu"

%class.StackMapTable = type { i32, i32, ptr }
%class.StackMapFrame = type { i32, i32, i32, i32, i16, i16, i8, ptr, ptr, ptr }

; Function Attrs: mustprogress nounwind uwtable
define linkonce_odr hidden noundef i32 @_ZNK13StackMapFrame6offsetEv(ptr noundef nonnull align 8 dereferenceable(48) %0) #1 comdat align 2 {
  %2 = alloca ptr, align 8
  store ptr %0, ptr %2, align 8
  %3 = load ptr, ptr %2, align 8
  %4 = getelementptr inbounds %class.StackMapFrame, ptr %3, i32 0, i32 0
  %5 = load i32, ptr %4, align 8
  ret i32 %5
}

; Function Attrs: mustprogress nounwind uwtable
define hidden noundef i32 @_ZNK13StackMapTable21get_index_from_offsetEi(ptr noundef nonnull align 8 dereferenceable(16) %0, i32 noundef %1) #1 align 2 {
  %3 = alloca i32, align 4
  %4 = alloca ptr, align 8
  %5 = alloca i32, align 4
  %6 = alloca i32, align 4
  store ptr %0, ptr %4, align 8
  store i32 %1, ptr %5, align 4
  %7 = load ptr, ptr %4, align 8
  store i32 0, ptr %6, align 4
  br label %8

8:                                                ; preds = %26, %2
  %9 = load i32, ptr %6, align 4
  %10 = getelementptr inbounds %class.StackMapTable, ptr %7, i32 0, i32 1
  %11 = load i32, ptr %10, align 4
  %12 = icmp slt i32 %9, %11
  br i1 %12, label %13, label %29

13:                                               ; preds = %8
  %14 = getelementptr inbounds %class.StackMapTable, ptr %7, i32 0, i32 2
  %15 = load ptr, ptr %14, align 8
  %16 = load i32, ptr %6, align 4
  %17 = sext i32 %16 to i64
  %18 = getelementptr inbounds ptr, ptr %15, i64 %17
  %19 = load ptr, ptr %18, align 8
  %20 = call noundef i32 @_ZNK13StackMapFrame6offsetEv(ptr noundef nonnull align 8 dereferenceable(48) %19)
  %21 = load i32, ptr %5, align 4
  %22 = icmp eq i32 %20, %21
  br i1 %22, label %23, label %25

23:                                               ; preds = %13
  %24 = load i32, ptr %6, align 4
  store i32 %24, ptr %3, align 4
  br label %31

25:                                               ; preds = %13
  br label %26

26:                                               ; preds = %25
  %27 = load i32, ptr %6, align 4
  %28 = add nsw i32 %27, 1
  store i32 %28, ptr %6, align 4
  br label %8, !llvm.loop !13

29:                                               ; preds = %8
  %30 = load i32, ptr %6, align 4
  store i32 %30, ptr %3, align 4
  br label %31

31:                                               ; preds = %29, %23
  %32 = load i32, ptr %3, align 4
  ret i32 %32
}